; Function Attrs: mustprogress uwtable
define noundef ptr @uscript_openRun_77(ptr noundef %0, i32 noundef %1, ptr noundef %2) local_unnamed_addr #0 {
  %4 = icmp eq ptr %2, null
  br i1 %4, label %29, label %5

5:                                                ; preds = %3
  %6 = load i32, ptr %2, align 4, !tbaa !3
  %7 = icmp slt i32 %6, 1
  br i1 %7, label %8, label %29

8:                                                ; preds = %5
  %9 = tail call noalias dereferenceable_or_null(296) ptr @uprv_malloc_77(i64 noundef 296) #7
  %10 = icmp eq ptr %9, null
  br i1 %10, label %11, label %12

11:                                               ; preds = %8
  store i32 7, ptr %2, align 4, !tbaa !3
  br label %29

12:                                               ; preds = %8
  %13 = load i32, ptr %2, align 4, !tbaa !3
  %14 = icmp slt i32 %13, 1
  br i1 %14, label %15, label %28

15:                                               ; preds = %12
  %16 = icmp slt i32 %1, 0
  br i1 %16, label %20, label %17

17:                                               ; preds = %15
  %18 = icmp eq ptr %0, null
  %19 = icmp ne i32 %1, 0
  %.not14.i = xor i1 %18, %19
  br i1 %.not14.i, label %uscript_setRunText_77.exit, label %20

20:                                               ; preds = %17, %15
  store i32 1, ptr %2, align 4, !tbaa !3
  br label %28

uscript_setRunText_77.exit:                       ; preds = %17
  %21 = getelementptr inbounds nuw i8, ptr %9, i64 8
  store ptr %0, ptr %21, align 8, !tbaa !7
  store i32 %1, ptr %9, align 8, !tbaa !13
  %22 = getelementptr inbounds nuw i8, ptr %9, i64 16
  store i32 0, ptr %22, align 8, !tbaa !14
  %23 = getelementptr inbounds nuw i8, ptr %9, i64 20
  store i32 0, ptr %23, align 4, !tbaa !15
  %24 = getelementptr inbounds nuw i8, ptr %9, i64 24
  store i32 -1, ptr %24, align 8, !tbaa !16
  %25 = getelementptr inbounds nuw i8, ptr %9, i64 284
  store i32 -1, ptr %25, align 4, !tbaa !17
  %26 = getelementptr inbounds nuw i8, ptr %9, i64 288
  store i32 0, ptr %26, align 8, !tbaa !18
  %27 = getelementptr inbounds nuw i8, ptr %9, i64 292
  store i32 0, ptr %27, align 4, !tbaa !19
  br label %29

28:                                               ; preds = %12, %20
  tail call void @uprv_free_77(ptr noundef nonnull %9)
  br label %29

29:                                               ; preds = %uscript_setRunText_77.exit, %28, %3, %5, %11
  %.011 = phi ptr [ null, %11 ], [ null, %5 ], [ null, %3 ], [ null, %28 ], [ %9, %uscript_setRunText_77.exit ]
  ret ptr %.011
}